target datalayout = "e-m:e-p270:32:32-p271:32:32-p272:64:64-i64:64-i128:128-f80:128-n8:16:32:64-S128"
target triple = "x86_64-pc-linux-gnu"

%"class.i18n::phonenumbers::UnicodeText::Repr" = type <{ ptr, i32, i32, i8, i8, [6 x i8] }>
%"class.i18n::phonenumbers::UnicodeText" = type { %"class.i18n::phonenumbers::UnicodeText::Repr" }

; Function Attrs: mustprogress nounwind uwtable
define dso_local void @_ZN4i18n12phonenumbers11UnicodeText4Repr5clearEv(ptr noundef nonnull align 8 dereferenceable(18) %0) #1 align 2 {
  %2 = alloca ptr, align 8
  store ptr %0, ptr %2, align 8, !tbaa !18
  %3 = load ptr, ptr %2, align 8
  %4 = getelementptr inbounds nuw %"class.i18n::phonenumbers::UnicodeText::Repr", ptr %3, i32 0, i32 3
  %5 = load i8, ptr %4, align 8, !tbaa !23, !range !24, !noundef !25
  %6 = trunc i8 %5 to i1
  br i1 %6, label %7, label %13

7:                                                ; preds = %1
  %8 = getelementptr inbounds nuw %"class.i18n::phonenumbers::UnicodeText::Repr", ptr %3, i32 0, i32 0
  %9 = load ptr, ptr %8, align 8, !tbaa !26
  %10 = icmp eq ptr %9, null
  br i1 %10, label %12, label %11

11:                                               ; preds = %7
  call void @_ZdaPv(ptr noundef %9) #17
  br label %12

12:                                               ; preds = %11, %7
  br label %13

13:                                               ; preds = %12, %1
  %14 = getelementptr inbounds nuw %"class.i18n::phonenumbers::UnicodeText::Repr", ptr %3, i32 0, i32 0
  store ptr null, ptr %14, align 8, !tbaa !26
  %15 = getelementptr inbounds nuw %"class.i18n::phonenumbers::UnicodeText::Repr", ptr %3, i32 0, i32 2
  store i32 0, ptr %15, align 4, !tbaa !20
  %16 = getelementptr inbounds nuw %"class.i18n::phonenumbers::UnicodeText::Repr", ptr %3, i32 0, i32 1
  store i32 0, ptr %16, align 8, !tbaa !27
  %17 = getelementptr inbounds nuw %"class.i18n::phonenumbers::UnicodeText::Repr", ptr %3, i32 0, i32 3
  store i8 1, ptr %17, align 8, !tbaa !23
  ret void
}

; Function Attrs: mustprogress nounwind uwtable
define dso_local void @_ZN4i18n12phonenumbers11UnicodeText5clearEv(ptr noundef nonnull align 8 dereferenceable(24) %0) #1 align 2 {
  %2 = alloca ptr, align 8
  store ptr %0, ptr %2, align 8, !tbaa !41
  %3 = load ptr, ptr %2, align 8
  %4 = getelementptr inbounds nuw %"class.i18n::phonenumbers::UnicodeText", ptr %3, i32 0, i32 0
  call void @_ZN4i18n12phonenumbers11UnicodeText4Repr5clearEv(ptr noundef nonnull align 8 dereferenceable(18) %4)
  ret void
}